(dp1
S'output'
p2
S"<type 'exceptions.NameError'> global name 'curr_is_admin' is not defined"
p3
sS'layer'
p4
S'/home/rohit/Documents/itwsproject/web2py/applications/Library_Portal/controllers/default.py'
p5
sS'code'
p6
S'def index():\n    import datetime\n    thedate=datetime.date.today()\n\n    curr = db(db.auth_user.id == auth.user_id)\n    \n    state=0\n    if curr_is_admin==True:\n        state=1\n    \n    return dict(thedate=thedate, state=state)\n\ndef user():\n    return dict(form=auth())\n\ndef libreg():\n    return dict(form=auth.register())\n\n@cache.action()\ndef download():\n    return response.download(request, db)\n\ndef call():\n    return service()\n\n\n\nresponse._vars=response._caller(index)\n'
p7
sS'snapshot'
p8
(dp9
sS'traceback'
p10
S'Traceback (most recent call last):\n  File "/home/rohit/Documents/itwsproject/web2py/gluon/restricted.py", line 227, in restricted\n    exec ccode in environment\n  File "/home/rohit/Documents/itwsproject/web2py/applications/Library_Portal/controllers/default.py", line 28, in <module>\n  File "/home/rohit/Documents/itwsproject/web2py/gluon/globals.py", line 412, in <lambda>\n    self._caller = lambda f: f()\n  File "/home/rohit/Documents/itwsproject/web2py/applications/Library_Portal/controllers/default.py", line 8, in index\n    if curr_is_admin==True:\nNameError: global name \'curr_is_admin\' is not defined\n'
p11
s.