(dp1
S'output'
p2
S"<type 'exceptions.NameError'> global name 'v' is not defined"
p3
sS'layer'
p4
S'/home/rohit/Documents/itwsproject/web2py/applications/Library_Portal/controllers/default.py'
p5
sS'code'
p6
S'import datetime\n@auth.requires_login()\ndef index():\n    thedate=datetime.date.today()\n    page=0\n    items_per_page=10\n    limitby=(page*items_per_page,(page+1)*items_per_page+1)\n    rows=db(db.book).select(db.book.ALL, orderby=db.book.dateadded, limitby=limitby)\n    pops=db(db.book).select(db.book.ALL, orderby=db.book.rating, limitby=limitby)\n    wishes=db(db.wish.bookuser == auth.user.id).select(db.wish.ALL, orderby=db.wish.id)\n\n    return locals()\n\n\ndef fine():\n    members=db(db.auth_user).select(db.auth_user.ALL, orderby=db.auth_user.id)\n    return locals()\n\ndef remove():\n    mems=db(db.auth_user).select(db.auth_user.ALL, orderby=db.auth_user.id)\n    return locals()\n\ndef user():\n    return dict(form=auth())\n\ndef libreg():\n    return dict(form=auth.register())\n\n@auth.requires(auth.user!=None and auth.user.is_admin==True)\ndef libadmin():\n    if auth.user!=None and auth.user.is_admin==True:\n        grid = SQLFORM.grid(db.book)\n        return dict(grid=grid)\n    else:\n        return dict()\n\ndef mycheck():\n    abook = db.book(request.vars.check)\n    number = db((db.records.bookuser ==  auth.user.id) & (db.records.ifret == False)).count()\n    if number>=3:\n        response.flash=\'You cannot borrow any more books so you will have to return a book\'\n    else:\n        num = abook.numcopy - abook.numref\n        if num <= abook.numborrow:\n            response.flash=\'No more books available!\'\n            return str("Ran out of copies")\n        else:\n            return str(num)+" books available" \n\ndef wishlist():\n    mywish = db.book(request.vars.love)\n    nwish = db((db.wish.bookuser == auth.user.id) & (db.wish.bookid == mywish.id)).count()\n    if nwish != 1:\n        db.wish.insert(bookid = mywish.id, bookuser=auth.user.id)\n    return str("Added to wishlist") \n\n\ndef status():\n    if auth.user == None:\n        rows=[]\n        return dict()\n    if len(request.args): \n        page=int(request.args[0])\n    else: \n        page=0\n    items_per_page=10\n    limitby=(page*items_per_page,(page+1)*items_per_page+1)\n    rows=db(db.records.bookuser == auth.user.id).select(db.records.ALL, orderby=db.records.date_borrow, limitby=limitby)\n    return locals()\n\ndef borrow():\n    form1=FORM(INPUT(_id=\'keyword1\', _name=\'keyword1\', _onkeyup="ajax(\'callback1\', [\'keyword1\'], \'target1\');")) \n    target_div1=DIV(_id=\'target1\')\n\n    form2=FORM(INPUT(_id=\'keyword2\', _name=\'keyword2\', _onkeyup="ajax(\'callback2\', [\'keyword2\'], \'target2\');")) \n    target_div2=DIV(_id=\'target2\')\n\n    form3=FORM(INPUT(_id=\'keyword3\', _name=\'keyword3\', _onkeyup="ajax(\'callback3\', [\'keyword3\'], \'target3\');")) \n    target_div3=DIV(_id=\'target3\')\n\n    return locals()\n\ndef show():\n        \n    form=FORM(\'Rating:\', INPUT(_type=\'radio\', _name=\'test\', _value=v, value=\'b\'), INPUT(_type=\'submit\'))\n    mybook = db.book(request.args(0,cast=int)) or redirect(URL(\'index\'))\n    return dict(mybook=mybook, form=form)\n\ndef callback1():\n    query = db.book.title.contains(request.vars.keyword1)\n    books = db(query).select(orderby=db.book.title)\n    links = [A(b.title, _href=URL(\'show\',args=b.id)) for b in books]\n    return UL(*links)\n\ndef callback2():\n    query = db.book.author.contains(request.vars.keyword2)\n    books = db(query).select(orderby=db.book.author)\n    links = [A(b.author, _href=URL(\'show\',args=b.id)) for b in books]\n    return UL(*links)\n\ndef callback3():\n    query = db.book.genre.contains(request.vars.keyword3)\n    books = db(query).select(orderby=db.book.genre)\n    links = [A(b.genre, _href=URL(\'show\',args=b.id)) for b in books]\n    return UL(*links)\n\ndef ebooks():\n    if len(request.args): \n        page=int(request.args[0])\n    else: \n        page=0\n    items_per_page=10\n    limitby=(page*items_per_page,(page+1)*items_per_page+1)\n    rows=db(db.book.ifebook==1).select(db.book.ALL, orderby=db.book.title, limitby=limitby)\n    return locals()\n\n@cache.action()\ndef download():\n    return response.download(request, db)\n\ndef call():\n    return service()\n\ndef download_pdf():\n    filename=request.args[0]\n    path=os.path.join(request.folder,\'uploads\', filename)\n    response.headers[\'ContentType\'] ="application/pdf"\n    response.headers[\'Content-Disposition\']="inline; " + filename\n    return response.stream(open(filename), chunk_size=65536)\n\nresponse._vars=response._caller(show)\n'
p7
sS'snapshot'
p8
(dp9
sS'traceback'
p10
S'Traceback (most recent call last):\n  File "/home/rohit/Documents/itwsproject/web2py/gluon/restricted.py", line 227, in restricted\n    exec ccode in environment\n  File "/home/rohit/Documents/itwsproject/web2py/applications/Library_Portal/controllers/default.py", line 131, in <module>\n  File "/home/rohit/Documents/itwsproject/web2py/gluon/globals.py", line 412, in <lambda>\n    self._caller = lambda f: f()\n  File "/home/rohit/Documents/itwsproject/web2py/applications/Library_Portal/controllers/default.py", line 85, in show\n    form=FORM(\'Rating:\', INPUT(_type=\'radio\', _name=\'test\', _value=v, value=\'b\'), INPUT(_type=\'submit\'))\nNameError: global name \'v\' is not defined\n'
p11
s.